; Function Attrs: nounwind uwtable
define i32 @b2Chain_GetSegmentCount(i64 %0) local_unnamed_addr #0 {
  %.sroa.2.0.extract.shift = lshr i64 %0, 32
  %2 = trunc nuw i64 %.sroa.2.0.extract.shift to i32
  %3 = and i32 %2, 65535
  %4 = tail call ptr @b2GetWorldLocked(i32 noundef %3) #10
  %5 = icmp eq ptr %4, null
  br i1 %5, label %12, label %6

6:                                                ; preds = %1
  %7 = getelementptr i8, ptr %4, i64 1272
  %.val = load ptr, ptr %7, align 8, !tbaa !10
  %8 = shl i64 %0, 32
  %sext.i = add i64 %8, -4294967296
  %9 = ashr exact i64 %sext.i, 32
  %10 = getelementptr inbounds %struct.b2ChainShape, ptr %.val, i64 %9, i32 3
  %11 = load i32, ptr %10, align 4, !tbaa !143
  br label %12

12:                                               ; preds = %1, %6
  %.0 = phi i32 [ %11, %6 ], [ 0, %1 ]
  ret i32 %.0
}